; Function Attrs: inlinehint nounwind uwtable
define internal fastcc range(i32 0, 2) i32 @_dt_masks_dynbuf_growto(ptr noundef %0, i64 noundef %1) unnamed_addr #10 {
  %3 = shl i64 %1, 2
  %4 = tail call ptr @dt_alloc_aligned(i64 noundef %3) #19
  call void @llvm.assume(i1 true) [ "align"(ptr %4, i64 64) ]
  %.not = icmp eq ptr %4, null
  br i1 %.not, label %5, label %7

5:                                                ; preds = %2
  %6 = getelementptr inbounds nuw i8, ptr %0, i64 8
  tail call void (ptr, ...) @dt_print_ext(ptr noundef nonnull @.str.18, ptr noundef nonnull %6, i64 noundef %1) #19
  br label %23

7:                                                ; preds = %2
  %8 = load ptr, ptr %0, align 8, !tbaa !89
  %.not19 = icmp eq ptr %8, null
  br i1 %.not19, label %21, label %9

9:                                                ; preds = %7
  %10 = getelementptr inbounds nuw i8, ptr %0, i64 144
  %11 = load i64, ptr %10, align 8, !tbaa !151
  %12 = shl i64 %11, 2
  tail call void @llvm.memcpy.p0.p0.i64(ptr nonnull align 64 %4, ptr nonnull align 4 %8, i64 %12, i1 false)
  %13 = load i32, ptr getelementptr inbounds nuw (i8, ptr @darktable, i64 8), align 8, !tbaa !121
  %14 = and i32 %13, 4096
  %.not20 = icmp eq i32 %14, 0
  br i1 %.not20, label %19, label %15

15:                                               ; preds = %9
  %16 = getelementptr inbounds nuw i8, ptr %0, i64 8
  %17 = load i64, ptr %10, align 8, !tbaa !151
  %18 = load ptr, ptr %0, align 8, !tbaa !89
  tail call void (ptr, ...) @dt_print_ext(ptr noundef nonnull @.str.19, ptr noundef nonnull %16, i64 noundef %17, ptr noundef nonnull %4, ptr noundef %18) #19
  br label %19

19:                                               ; preds = %15, %9
  %20 = load ptr, ptr %0, align 8, !tbaa !89
  tail call void @free(ptr noundef %20) #19
  br label %21

21:                                               ; preds = %19, %7
  %22 = getelementptr inbounds nuw i8, ptr %0, i64 144
  store i64 %1, ptr %22, align 8, !tbaa !151
  store ptr %4, ptr %0, align 8, !tbaa !89
  br label %23

23:                                               ; preds = %21, %5
  %.0 = phi i32 [ 1, %21 ], [ 0, %5 ]
  ret i32 %.0
}